target datalayout = "e-m:e-p270:32:32-p271:32:32-p272:64:64-i64:64-i128:128-f80:128-n8:16:32:64-S128"
target triple = "x86_64-pc-linux-gnu"

%"struct.Luau::CodeGen::IrToStringContext" = type { ptr, ptr, ptr, ptr, ptr }
%"struct.Luau::CodeGen::IrBlock" = type { i8, i16, i32, i32, i32, i32, i32, %"struct.Luau::CodeGen::Label" }
%"struct.Luau::CodeGen::Label" = type { i32, i32 }

@.str.147 = private unnamed_addr constant [12 x i8] c"bb_bytecode\00", align 1
@.str.148 = private unnamed_addr constant [12 x i8] c"bb_fallback\00", align 1
@.str.149 = private unnamed_addr constant [3 x i8] c"bb\00", align 1
@.str.150 = private unnamed_addr constant [10 x i8] c"bb_linear\00", align 1
@.str.151 = private unnamed_addr constant [5 x i8] c"dead\00", align 1
@.str.156 = private unnamed_addr constant [6 x i8] c"%s_%u\00", align 1

; Function Attrs: mustprogress nounwind uwtable
define dso_local noundef ptr @_ZN4Luau7CodeGen16getBlockKindNameENS0_11IrBlockKindE(i8 noundef zeroext %0) #0 {
  %2 = alloca ptr, align 8
  %3 = alloca i8, align 1
  store i8 %0, ptr %3, align 1, !tbaa !8
  %4 = load i8, ptr %3, align 1, !tbaa !8
  switch i8 %4, label %10 [
    i8 0, label %5
    i8 1, label %6
    i8 2, label %7
    i8 3, label %8
    i8 4, label %9
  ]

5:                                                ; preds = %1
  store ptr @.str.147, ptr %2, align 8
  br label %11

6:                                                ; preds = %1
  store ptr @.str.148, ptr %2, align 8
  br label %11

7:                                                ; preds = %1
  store ptr @.str.149, ptr %2, align 8
  br label %11

8:                                                ; preds = %1
  store ptr @.str.150, ptr %2, align 8
  br label %11

9:                                                ; preds = %1
  store ptr @.str.151, ptr %2, align 8
  br label %11

10:                                               ; preds = %1
  unreachable

11:                                               ; preds = %9, %8, %7, %6, %5
  %12 = load ptr, ptr %2, align 8
  ret ptr %12
}

; Function Attrs: mustprogress uwtable
define dso_local void @_ZN4Luau7CodeGen8toStringERNS0_17IrToStringContextERKNS0_7IrBlockEj(ptr noundef nonnull align 8 dereferenceable(40) %0, ptr noundef nonnull align 4 dereferenceable(32) %1, i32 noundef %2) #1 {
  %4 = alloca ptr, align 8
  %5 = alloca ptr, align 8
  %6 = alloca i32, align 4
  store ptr %0, ptr %4, align 8, !tbaa !10
  store ptr %1, ptr %5, align 8, !tbaa !44
  store i32 %2, ptr %6, align 4, !tbaa !15
  %7 = load ptr, ptr %4, align 8, !tbaa !10
  %8 = getelementptr inbounds nuw %"struct.Luau::CodeGen::IrToStringContext", ptr %7, i32 0, i32 0
  %9 = load ptr, ptr %8, align 8, !tbaa !17
  %10 = load ptr, ptr %5, align 8, !tbaa !44
  %11 = getelementptr inbounds nuw %"struct.Luau::CodeGen::IrBlock", ptr %10, i32 0, i32 0
  %12 = load i8, ptr %11, align 4, !tbaa !46
  %13 = call noundef ptr @_ZN4Luau7CodeGen16getBlockKindNameENS0_11IrBlockKindE(i8 noundef zeroext %12)
  %14 = load i32, ptr %6, align 4, !tbaa !15
  call void (ptr, ptr, ...) @_ZN4Luau7CodeGenL6appendERNSt7__cxx1112basic_stringIcSt11char_traitsIcESaIcEEEPKcz(ptr noundef nonnull align 8 dereferenceable(32) %9, ptr noundef @.str.156, ptr noundef %13, i32 noundef %14)
  ret void
}