; Function Attrs: mustprogress uwtable
define dso_local void @_ZN4Luau7CodeGen8toStringERNS0_17IrToStringContextERKNS0_7IrBlockEj(ptr noundef nonnull readonly align 8 captures(none) dereferenceable(40) %0, ptr noundef nonnull readonly align 4 captures(none) dereferenceable(32) %1, i32 noundef %2) local_unnamed_addr #1 {
switch.lookup:
  %3 = load ptr, ptr %0, align 8, !tbaa !4
  %4 = load i8, ptr %1, align 4, !tbaa !32
  %5 = sext i8 %4 to i64
  %switch.gep = getelementptr inbounds [5 x ptr], ptr @switch.table._ZN4Luau7CodeGen12toDotDjGraphB5cxx11ERKNS0_10IrFunctionE, i64 0, i64 %5
  %switch.load = load ptr, ptr %switch.gep, align 8
  tail call void (ptr, ptr, ...) @_ZN4Luau7CodeGenL6appendERNSt7__cxx1112basic_stringIcSt11char_traitsIcESaIcEEEPKcz(ptr noundef nonnull align 8 dereferenceable(32) %3, ptr noundef nonnull @.str.156, ptr noundef nonnull %switch.load, i32 noundef %2)
  ret void
}